; Function Attrs: mustprogress uwtable
define void @_ZNK8QuantLib9SwapIndex23forwardingTermStructureEv(ptr dead_on_unwind noalias nocapture writable writeonly sret(%"class.QuantLib::Handle") align 8 %agg.result, ptr nocapture noundef nonnull readonly align 8 dereferenceable(320) %this) local_unnamed_addr #6 align 2 personality ptr @__gxx_personality_v0 {
entry:
  %iborIndex_ = getelementptr inbounds nuw i8, ptr %this, i64 248
  %0 = load ptr, ptr %iborIndex_, align 8, !tbaa !52
  %cmp.not.i = icmp eq ptr %0, null
  br i1 %cmp.not.i, label %cond.false.i, label %_ZNK5boost10shared_ptrIN8QuantLib9IborIndexEEptEv.exit, !prof !84

cond.false.i:                                     ; preds = %entry
  tail call void @_ZN5boost16assertion_failedEPKcS1_S1_l(ptr noundef nonnull @.str.7, ptr noundef nonnull @__PRETTY_FUNCTION__._ZNK5boost10shared_ptrIN8QuantLib9IborIndexEEptEv, ptr noundef nonnull @.str.8, i64 noundef 784)
  %.pre.i = load ptr, ptr %iborIndex_, align 8, !tbaa !52
  br label %_ZNK5boost10shared_ptrIN8QuantLib9IborIndexEEptEv.exit

_ZNK5boost10shared_ptrIN8QuantLib9IborIndexEEptEv.exit: ; preds = %entry, %cond.false.i
  %1 = phi ptr [ %0, %entry ], [ %.pre.i, %cond.false.i ]
  tail call void @llvm.experimental.noalias.scope.decl(metadata !85)
  %termStructure_.i = getelementptr inbounds nuw i8, ptr %1, i64 248
  %2 = load ptr, ptr %termStructure_.i, align 8, !tbaa !80, !noalias !85
  store ptr %2, ptr %agg.result, align 8, !tbaa !80, !alias.scope !85
  %pn.i.i.i = getelementptr inbounds nuw i8, ptr %agg.result, i64 8
  %pn3.i.i.i = getelementptr inbounds nuw i8, ptr %1, i64 256
  %3 = load ptr, ptr %pn3.i.i.i, align 8, !tbaa !44, !noalias !85
  store ptr %3, ptr %pn.i.i.i, align 8, !tbaa !44, !alias.scope !85
  %cmp.not.i.i.i.i = icmp eq ptr %3, null
  br i1 %cmp.not.i.i.i.i, label %_ZNK8QuantLib9IborIndex23forwardingTermStructureEv.exit, label %if.then.i.i.i.i

if.then.i.i.i.i:                                  ; preds = %_ZNK5boost10shared_ptrIN8QuantLib9IborIndexEEptEv.exit
  %use_count_.i.i.i.i.i = getelementptr inbounds nuw i8, ptr %3, i64 8
  %4 = atomicrmw add ptr %use_count_.i.i.i.i.i, i32 1 monotonic, align 4, !noalias !85
  br label %_ZNK8QuantLib9IborIndex23forwardingTermStructureEv.exit

_ZNK8QuantLib9IborIndex23forwardingTermStructureEv.exit: ; preds = %_ZNK5boost10shared_ptrIN8QuantLib9IborIndexEEptEv.exit, %if.then.i.i.i.i
  ret void
}